target datalayout = "e-m:e-p270:32:32-p271:32:32-p272:64:64-i64:64-i128:128-f80:128-n8:16:32:64-S128"
target triple = "x86_64-unknown-linux-gnu"

; Function Attrs: mustprogress nounwind uwtable
define void @_ZN5arrow7compute8internal17BooleanKeyEncoder9AddLengthERKNS0_9ExecValueElPi(ptr noundef nonnull align 8 dereferenceable(8) %this, ptr noundef nonnull align 8 dereferenceable(136) %0, i64 noundef %batch_length, ptr noundef %lengths) unnamed_addr #2 align 2 {
entry:
  %this.addr = alloca ptr, align 8
  %.addr = alloca ptr, align 8
  %batch_length.addr = alloca i64, align 8
  %lengths.addr = alloca ptr, align 8
  %i = alloca i64, align 8
  store ptr %this, ptr %this.addr, align 8
  store ptr %0, ptr %.addr, align 8
  store i64 %batch_length, ptr %batch_length.addr, align 8
  store ptr %lengths, ptr %lengths.addr, align 8
  store i64 0, ptr %i, align 8
  br label %for.cond

for.cond:                                         ; preds = %for.inc, %entry
  %1 = load i64, ptr %i, align 8
  %2 = load i64, ptr %batch_length.addr, align 8
  %cmp = icmp slt i64 %1, %2
  br i1 %cmp, label %for.body, label %for.end

for.body:                                         ; preds = %for.cond
  %3 = load ptr, ptr %lengths.addr, align 8
  %4 = load i64, ptr %i, align 8
  %arrayidx = getelementptr inbounds i32, ptr %3, i64 %4
  %5 = load i32, ptr %arrayidx, align 4
  %add = add nsw i32 %5, 2
  store i32 %add, ptr %arrayidx, align 4
  br label %for.inc

for.inc:                                          ; preds = %for.body
  %6 = load i64, ptr %i, align 8
  %inc = add nsw i64 %6, 1
  store i64 %inc, ptr %i, align 8
  br label %for.cond, !llvm.loop !8

for.end:                                          ; preds = %for.cond
  ret void
}