; Function Attrs: mustprogress nofree norecurse nosync nounwind memory(argmem: readwrite) uwtable
define void @_ZN5arrow7compute8internal17BooleanKeyEncoder9AddLengthERKNS0_9ExecValueElPi(ptr nocapture nonnull readnone align 8 %this, ptr nocapture nonnull readnone align 8 %0, i64 noundef %batch_length, ptr nocapture noundef %lengths) unnamed_addr #3 align 2 {
entry:
  %cmp3 = icmp sgt i64 %batch_length, 0
  br i1 %cmp3, label %for.body, label %for.end

for.body:                                         ; preds = %entry, %for.body
  %i.04 = phi i64 [ %inc, %for.body ], [ 0, %entry ]
  %arrayidx = getelementptr inbounds i32, ptr %lengths, i64 %i.04
  %1 = load i32, ptr %arrayidx, align 4
  %add = add nsw i32 %1, 2
  store i32 %add, ptr %arrayidx, align 4
  %inc = add nuw nsw i64 %i.04, 1
  %exitcond.not = icmp eq i64 %inc, %batch_length
  br i1 %exitcond.not, label %for.end, label %for.body, !llvm.loop !16

for.end:                                          ; preds = %for.body, %entry
  ret void
}